; Function Attrs: nofree norecurse nosync nounwind memory(read, inaccessiblemem: none) uwtable
define range(i32 -1, 5) i32 @Acec_TreeWhichPoint(ptr noundef readonly captures(none) %0, i32 noundef %1, i32 noundef %2) local_unnamed_addr #7 {
  %4 = mul nsw i32 %1, 6
  %5 = getelementptr i8, ptr %0, i64 8
  %.val = load ptr, ptr %5, align 8
  %6 = sext i32 %4 to i64
  %invariant.gep = getelementptr i32, ptr %.val, i64 %6
  br label %7

7:                                                ; preds = %3, %10
  %indvars.iv = phi i64 [ 0, %3 ], [ %indvars.iv.next, %10 ]
  %gep = getelementptr i32, ptr %invariant.gep, i64 %indvars.iv
  %8 = load i32, ptr %gep, align 4
  %9 = icmp eq i32 %8, %2
  br i1 %9, label %.split.loop.exit10, label %10

10:                                               ; preds = %7
  %indvars.iv.next = add nuw nsw i64 %indvars.iv, 1
  %exitcond.not = icmp eq i64 %indvars.iv.next, 5
  br i1 %exitcond.not, label %.split.loop.exit, label %7, !llvm.loop !38

.split.loop.exit10:                               ; preds = %7
  %11 = trunc nuw nsw i64 %indvars.iv to i32
  br label %.split.loop.exit

.split.loop.exit:                                 ; preds = %10, %.split.loop.exit10
  %.07 = phi i32 [ %11, %.split.loop.exit10 ], [ -1, %10 ]
  ret i32 %.07
}